target datalayout = "e-m:e-p270:32:32-p271:32:32-p272:64:64-i64:64-i128:128-f80:128-n8:16:32:64-S128"
target triple = "x86_64-pc-linux-gnu"

@_ZN5ceres8internal22SparseIterativeRefinerD1Ev = hidden unnamed_addr alias void (ptr), ptr @_ZN5ceres8internal22SparseIterativeRefinerD2Ev

; Function Attrs: mustprogress nounwind uwtable
define hidden void @_ZN5ceres8internal22SparseIterativeRefinerD0Ev(ptr noundef nonnull align 8 dereferenceable(64) %0) unnamed_addr #1 align 2 {
  %2 = alloca ptr, align 8
  store ptr %0, ptr %2, align 8, !tbaa !14
  %3 = load ptr, ptr %2, align 8
  call void @_ZN5ceres8internal22SparseIterativeRefinerD1Ev(ptr noundef nonnull align 8 dereferenceable(64) %3) #19
  call void @_ZdlPvm(ptr noundef %3, i64 noundef 64) #20
  ret void
}